target datalayout = "e-m:e-p270:32:32-p271:32:32-p272:64:64-i64:64-i128:128-f80:128-n8:16:32:64-S128"
target triple = "x86_64-pc-linux-gnu"

%struct._zval_struct = type { %union._zend_value, %union.anon, %union.anon.2 }
%union._zend_value = type { i64 }
%union.anon = type { i32 }
%union.anon.2 = type { i32 }
%struct._zend_stack = type { i32, i32, i32, ptr }
%struct._zend_array = type { %struct._zend_refcounted_h, %union.anon.5, i32, %union.anon.7, i32, i32, i32, i32, i64, ptr }
%struct._zend_refcounted_h = type { i32, %union.anon.4 }
%union.anon.4 = type { i32 }
%union.anon.5 = type { i32 }
%union.anon.7 = type { ptr }
%struct._zend_php_scanner_globals = type { ptr, ptr, i32, ptr, ptr, ptr, ptr, ptr, i32, %struct._zend_stack, %struct._zend_ptr_stack, %struct._zend_stack, i8, i32, i8, ptr, i64, ptr, i64, ptr, ptr, ptr, i32, ptr, ptr }
%struct._zend_ptr_stack = type { i32, i32, ptr, ptr, i8 }
%struct._zend_compiler_globals = type { %struct._zend_stack, ptr, ptr, i32, ptr, ptr, ptr, ptr, i8, i8, i8, i8, i8, %struct._zend_llist, ptr, i8, i8, i8, i8, ptr, i32, i32, %struct._zend_oparray_context, %struct._zend_file_context, ptr, %struct._zend_array, ptr, i64, i8, i8, i8, ptr, ptr, %struct._zend_stack, ptr, i32, ptr, ptr, i64, i64, ptr, ptr, ptr, ptr, i32, %struct._zend_stack }
%struct._zend_llist = type { ptr, ptr, i64, i64, ptr, i8, ptr }
%struct._zend_oparray_context = type { i32, i32, i32, i32, i32, i32, i32, ptr, ptr, i8 }
%struct._zend_file_context = type { %struct._zend_declarables, ptr, i8, i8, ptr, ptr, ptr, %struct._zend_array }
%struct._zend_declarables = type { i64 }
%struct._zend_string = type { %struct._zend_refcounted_h, i64, i64, [1 x i8] }
%struct._zend_object = type { %struct._zend_refcounted_h, i32, ptr, ptr, ptr, [1 x %struct._zval_struct] }
%struct.event_context = type { ptr, ptr }

@language_scanner_globals = external global %struct._zend_php_scanner_globals, align 8
@compiler_globals = external global %struct._zend_compiler_globals, align 8

; Function Attrs: nounwind uwtable
define internal ptr @extract_token_id_to_replace(ptr noundef %0, ptr noundef %1, i64 noundef %2) #0 {
  %4 = alloca ptr, align 8
  %5 = alloca ptr, align 8
  %6 = alloca ptr, align 8
  %7 = alloca ptr, align 8
  %8 = alloca ptr, align 8
  %9 = alloca i64, align 8
  %10 = alloca ptr, align 8
  %11 = alloca ptr, align 8
  store ptr %0, ptr %7, align 8
  store ptr %1, ptr %8, align 8
  store i64 %2, ptr %9, align 8
  %12 = load ptr, ptr %7, align 8
  %13 = icmp ne ptr %12, null
  call void @llvm.assume(i1 %13)
  %14 = load ptr, ptr %7, align 8
  store ptr %14, ptr %4, align 8
  %15 = load ptr, ptr %4, align 8
  %16 = getelementptr inbounds %struct._zval_struct, ptr %15, i32 0, i32 1
  %17 = load i8, ptr %16, align 8
  %18 = zext i8 %17 to i32
  %19 = icmp eq i32 %18, 7
  br i1 %19, label %20, label %29

20:                                               ; preds = %3
  %21 = load ptr, ptr %7, align 8
  %22 = getelementptr inbounds %struct._zval_struct, ptr %21, i32 0, i32 0
  %23 = load ptr, ptr %22, align 8
  %24 = call ptr @zend_hash_index_find(ptr noundef %23, i64 noundef 0)
  store ptr %24, ptr %10, align 8
  %25 = load ptr, ptr %7, align 8
  %26 = getelementptr inbounds %struct._zval_struct, ptr %25, i32 0, i32 0
  %27 = load ptr, ptr %26, align 8
  %28 = call ptr @zend_hash_index_find(ptr noundef %27, i64 noundef 1)
  store ptr %28, ptr %11, align 8
  br label %49

29:                                               ; preds = %3
  %30 = load ptr, ptr %7, align 8
  store ptr %30, ptr %5, align 8
  %31 = load ptr, ptr %5, align 8
  %32 = getelementptr inbounds %struct._zval_struct, ptr %31, i32 0, i32 1
  %33 = load i8, ptr %32, align 8
  %34 = zext i8 %33 to i32
  %35 = icmp eq i32 %34, 8
  br i1 %35, label %36, label %47

36:                                               ; preds = %29
  %37 = load ptr, ptr %7, align 8
  %38 = getelementptr inbounds %struct._zval_struct, ptr %37, i32 0, i32 0
  %39 = load ptr, ptr %38, align 8
  %40 = getelementptr inbounds %struct._zend_object, ptr %39, i32 0, i32 5
  %41 = getelementptr inbounds [1 x %struct._zval_struct], ptr %40, i64 0, i64 0
  store ptr %41, ptr %10, align 8
  %42 = load ptr, ptr %7, align 8
  %43 = getelementptr inbounds %struct._zval_struct, ptr %42, i32 0, i32 0
  %44 = load ptr, ptr %43, align 8
  %45 = getelementptr inbounds %struct._zend_object, ptr %44, i32 0, i32 5
  %46 = getelementptr inbounds [1 x %struct._zval_struct], ptr %45, i64 0, i64 1
  store ptr %46, ptr %11, align 8
  br label %48

47:                                               ; preds = %29
  store ptr null, ptr %6, align 8
  br label %70

48:                                               ; preds = %36
  br label %49

49:                                               ; preds = %48, %20
  %50 = load ptr, ptr %11, align 8
  %51 = getelementptr inbounds %struct._zval_struct, ptr %50, i32 0, i32 0
  %52 = load ptr, ptr %51, align 8
  %53 = getelementptr inbounds %struct._zend_string, ptr %52, i32 0, i32 2
  %54 = load i64, ptr %53, align 8
  %55 = load i64, ptr %9, align 8
  %56 = icmp eq i64 %54, %55
  br i1 %56, label %57, label %69

57:                                               ; preds = %49
  %58 = load ptr, ptr %11, align 8
  %59 = getelementptr inbounds %struct._zval_struct, ptr %58, i32 0, i32 0
  %60 = load ptr, ptr %59, align 8
  %61 = getelementptr inbounds %struct._zend_string, ptr %60, i32 0, i32 3
  %62 = getelementptr inbounds [1 x i8], ptr %61, i64 0, i64 0
  %63 = load ptr, ptr %8, align 8
  %64 = load i64, ptr %9, align 8
  %65 = call i32 @memcmp(ptr noundef %62, ptr noundef %63, i64 noundef %64) #10
  %66 = icmp ne i32 %65, 0
  br i1 %66, label %69, label %67

67:                                               ; preds = %57
  %68 = load ptr, ptr %10, align 8
  store ptr %68, ptr %6, align 8
  br label %70

69:                                               ; preds = %57, %49
  store ptr null, ptr %6, align 8
  br label %70

70:                                               ; preds = %69, %67, %47
  %71 = load ptr, ptr %6, align 8
  ret ptr %71
}

; Function Attrs: nounwind uwtable
define hidden void @on_event(i32 noundef %0, i32 noundef %1, i32 noundef %2, ptr noundef %3, i64 noundef %4, ptr noundef %5) #0 {
  %7 = alloca ptr, align 8
  %8 = alloca i32, align 4
  %9 = alloca i32, align 4
  %10 = alloca i32, align 4
  %11 = alloca ptr, align 8
  %12 = alloca i64, align 8
  %13 = alloca ptr, align 8
  %14 = alloca ptr, align 8
  %15 = alloca ptr, align 8
  %16 = alloca ptr, align 8
  %17 = alloca ptr, align 8
  %18 = alloca ptr, align 8
  %19 = alloca i32, align 4
  %20 = alloca i64, align 8
  %21 = alloca ptr, align 8
  %22 = alloca ptr, align 8
  store i32 %0, ptr %8, align 4
  store i32 %1, ptr %9, align 4
  store i32 %2, ptr %10, align 4
  store ptr %3, ptr %11, align 8
  store i64 %4, ptr %12, align 8
  store ptr %5, ptr %13, align 8
  %23 = load ptr, ptr %13, align 8
  store ptr %23, ptr %14, align 8
  %24 = load i32, ptr %8, align 4
  switch i32 %24, label %148 [
    i32 0, label %25
    i32 1, label %56
    i32 2, label %129
  ]

25:                                               ; preds = %6
  %26 = load i32, ptr %9, align 4
  %27 = icmp eq i32 %26, 0
  br i1 %27, label %28, label %29

28:                                               ; preds = %25
  br label %148

29:                                               ; preds = %25
  %30 = load i32, ptr %9, align 4
  %31 = icmp eq i32 %30, 59
  br i1 %31, label %32, label %36

32:                                               ; preds = %29
  %33 = load i32, ptr getelementptr inbounds (%struct._zend_php_scanner_globals, ptr @language_scanner_globals, i32 0, i32 2), align 8
  %34 = icmp ugt i32 %33, 1
  br i1 %34, label %35, label %36

35:                                               ; preds = %32
  store i32 391, ptr %9, align 4
  br label %45

36:                                               ; preds = %32, %29
  %37 = load i32, ptr %9, align 4
  %38 = icmp eq i32 %37, 291
  br i1 %38, label %39, label %44

39:                                               ; preds = %36
  %40 = load i32, ptr getelementptr inbounds (%struct._zend_php_scanner_globals, ptr @language_scanner_globals, i32 0, i32 2), align 8
  %41 = zext i32 %40 to i64
  %42 = icmp eq i64 %41, 3
  br i1 %42, label %43, label %44

43:                                               ; preds = %39
  store i32 390, ptr %9, align 4
  br label %44

44:                                               ; preds = %43, %39, %36
  br label %45

45:                                               ; preds = %44, %35
  %46 = load ptr, ptr %14, align 8
  %47 = getelementptr inbounds %struct.event_context, ptr %46, i32 0, i32 0
  %48 = load ptr, ptr %47, align 8
  %49 = load i32, ptr %9, align 4
  %50 = load ptr, ptr %11, align 8
  %51 = load i64, ptr %12, align 8
  %52 = load i32, ptr %10, align 4
  %53 = load ptr, ptr %14, align 8
  %54 = getelementptr inbounds %struct.event_context, ptr %53, i32 0, i32 1
  %55 = load ptr, ptr %54, align 8
  call void @add_token(ptr noundef %48, i32 noundef %49, ptr noundef %50, i64 noundef %51, i32 noundef %52, ptr noundef %55, ptr noundef null)
  br label %148

56:                                               ; preds = %6
  %57 = load ptr, ptr %14, align 8
  %58 = getelementptr inbounds %struct.event_context, ptr %57, i32 0, i32 0
  %59 = load ptr, ptr %58, align 8
  %60 = getelementptr inbounds %struct._zval_struct, ptr %59, i32 0, i32 0
  %61 = load ptr, ptr %60, align 8
  store ptr %61, ptr %15, align 8
  store ptr null, ptr %17, align 8
  br label %62

62:                                               ; preds = %56
  %63 = load ptr, ptr %15, align 8
  store ptr %63, ptr %18, align 8
  %64 = load ptr, ptr %18, align 8
  %65 = getelementptr inbounds %struct._zend_array, ptr %64, i32 0, i32 4
  %66 = load i32, ptr %65, align 8
  store i32 %66, ptr %19, align 4
  %67 = load ptr, ptr %18, align 8
  %68 = getelementptr inbounds %struct._zend_array, ptr %67, i32 0, i32 1
  %69 = load i32, ptr %68, align 8
  %70 = xor i32 %69, -1
  %71 = and i32 %70, 4
  %72 = zext i32 %71 to i64
  %73 = mul i64 %72, 4
  %74 = add i64 16, %73
  store i64 %74, ptr %20, align 8
  %75 = load ptr, ptr %18, align 8
  %76 = getelementptr inbounds %struct._zend_array, ptr %75, i32 0, i32 3
  %77 = load ptr, ptr %76, align 8
  %78 = load i32, ptr %19, align 4
  %79 = zext i32 %78 to i64
  %80 = load i64, ptr %20, align 8
  %81 = mul i64 %79, %80
  %82 = getelementptr inbounds i8, ptr %77, i64 %81
  store ptr %82, ptr %21, align 8
  br label %83

83:                                               ; preds = %113, %62
  %84 = load i32, ptr %19, align 4
  %85 = icmp ugt i32 %84, 0
  br i1 %85, label %86, label %116

86:                                               ; preds = %83
  %87 = load ptr, ptr %21, align 8
  %88 = load i64, ptr %20, align 8
  %89 = sub i64 0, %88
  %90 = getelementptr inbounds i8, ptr %87, i64 %89
  store ptr %90, ptr %21, align 8
  %91 = load ptr, ptr %21, align 8
  store ptr %91, ptr %7, align 8
  %92 = load ptr, ptr %7, align 8
  %93 = getelementptr inbounds %struct._zval_struct, ptr %92, i32 0, i32 1
  %94 = load i8, ptr %93, align 8
  %95 = zext i8 %94 to i32
  %96 = icmp eq i32 %95, 0
  %97 = xor i1 %96, true
  %98 = xor i1 %97, true
  %99 = zext i1 %98 to i32
  %100 = sext i32 %99 to i64
  %101 = icmp ne i64 %100, 0
  br i1 %101, label %102, label %103

102:                                              ; preds = %86
  br label %113

103:                                              ; preds = %86
  %104 = load ptr, ptr %21, align 8
  store ptr %104, ptr %16, align 8
  %105 = load ptr, ptr %16, align 8
  %106 = load ptr, ptr %11, align 8
  %107 = load i64, ptr %12, align 8
  %108 = call ptr @extract_token_id_to_replace(ptr noundef %105, ptr noundef %106, i64 noundef %107)
  store ptr %108, ptr %17, align 8
  %109 = load ptr, ptr %17, align 8
  %110 = icmp ne ptr %109, null
  br i1 %110, label %111, label %112

111:                                              ; preds = %103
  br label %116

112:                                              ; preds = %103
  br label %113

113:                                              ; preds = %112, %102
  %114 = load i32, ptr %19, align 4
  %115 = add i32 %114, -1
  store i32 %115, ptr %19, align 4
  br label %83

116:                                              ; preds = %111, %83
  br label %117

117:                                              ; preds = %116
  %118 = load ptr, ptr %17, align 8
  %119 = icmp ne ptr %118, null
  call void @llvm.assume(i1 %119)
  br label %120

120:                                              ; preds = %117
  %121 = load ptr, ptr %17, align 8
  store ptr %121, ptr %22, align 8
  %122 = load i32, ptr %9, align 4
  %123 = sext i32 %122 to i64
  %124 = load ptr, ptr %22, align 8
  %125 = getelementptr inbounds %struct._zval_struct, ptr %124, i32 0, i32 0
  store i64 %123, ptr %125, align 8
  %126 = load ptr, ptr %22, align 8
  %127 = getelementptr inbounds %struct._zval_struct, ptr %126, i32 0, i32 1
  store i32 4, ptr %127, align 8
  br label %128

128:                                              ; preds = %120
  br label %148

129:                                              ; preds = %6
  %130 = load ptr, ptr getelementptr inbounds (%struct._zend_php_scanner_globals, ptr @language_scanner_globals, i32 0, i32 5), align 8
  %131 = load ptr, ptr getelementptr inbounds (%struct._zend_php_scanner_globals, ptr @language_scanner_globals, i32 0, i32 7), align 8
  %132 = icmp ne ptr %130, %131
  br i1 %132, label %133, label %147

133:                                              ; preds = %129
  %134 = load ptr, ptr %14, align 8
  %135 = getelementptr inbounds %struct.event_context, ptr %134, i32 0, i32 0
  %136 = load ptr, ptr %135, align 8
  %137 = load ptr, ptr getelementptr inbounds (%struct._zend_php_scanner_globals, ptr @language_scanner_globals, i32 0, i32 5), align 8
  %138 = load ptr, ptr getelementptr inbounds (%struct._zend_php_scanner_globals, ptr @language_scanner_globals, i32 0, i32 7), align 8
  %139 = load ptr, ptr getelementptr inbounds (%struct._zend_php_scanner_globals, ptr @language_scanner_globals, i32 0, i32 5), align 8
  %140 = ptrtoint ptr %138 to i64
  %141 = ptrtoint ptr %139 to i64
  %142 = sub i64 %140, %141
  %143 = load i32, ptr getelementptr inbounds (%struct._zend_compiler_globals, ptr @compiler_globals, i32 0, i32 3), align 8
  %144 = load ptr, ptr %14, align 8
  %145 = getelementptr inbounds %struct.event_context, ptr %144, i32 0, i32 1
  %146 = load ptr, ptr %145, align 8
  call void @add_token(ptr noundef %136, i32 noundef 267, ptr noundef %137, i64 noundef %142, i32 noundef %143, ptr noundef %146, ptr noundef null)
  br label %147

147:                                              ; preds = %133, %129
  br label %148

148:                                              ; preds = %147, %128, %45, %28, %6
  ret void
}