; Function Attrs: nounwind uwtable
define hidden void @on_event(i32 noundef %0, i32 noundef %1, i32 noundef %2, ptr noundef %3, i64 noundef %4, ptr nocapture noundef readonly %5) #0 {
  switch i32 %0, label %70 [
    i32 0, label %7
    i32 1, label %18
    i32 2, label %59
  ]

7:                                                ; preds = %6
  %8 = icmp eq i32 %1, 0
  br i1 %8, label %70, label %9

9:                                                ; preds = %7
  %10 = icmp eq i32 %1, 59
  %11 = load i32, ptr getelementptr inbounds (%struct._zend_php_scanner_globals, ptr @language_scanner_globals, i64 0, i32 2), align 8
  %12 = icmp ugt i32 %11, 1
  %or.cond = select i1 %10, i1 %12, i1 false
  %13 = icmp eq i32 %1, 291
  %14 = icmp eq i32 %11, 3
  %or.cond4 = select i1 %13, i1 %14, i1 false
  %spec.store.select = select i1 %or.cond4, i32 390, i32 %1
  %.0 = select i1 %or.cond, i32 391, i32 %spec.store.select
  %15 = load ptr, ptr %5, align 8
  %16 = getelementptr inbounds i8, ptr %5, i64 8
  %17 = load ptr, ptr %16, align 8
  tail call fastcc void @add_token(ptr noundef %15, i32 noundef %.0, ptr noundef %3, i64 noundef %4, i32 noundef %2, ptr noundef %17, ptr noundef null)
  br label %70

18:                                               ; preds = %6
  %19 = load ptr, ptr %5, align 8
  %20 = load ptr, ptr %19, align 8
  %21 = getelementptr inbounds i8, ptr %20, i64 24
  %22 = load i32, ptr %21, align 8
  %23 = getelementptr inbounds i8, ptr %20, i64 8
  %24 = load i32, ptr %23, align 8
  %25 = shl i32 %24, 2
  %26 = and i32 %25, 16
  %27 = xor i32 %26, 16
  %narrow = add nuw nsw i32 %27, 16
  %28 = zext nneg i32 %narrow to i64
  %29 = getelementptr inbounds i8, ptr %20, i64 16
  %30 = load ptr, ptr %29, align 8
  %31 = zext i32 %22 to i64
  %32 = mul nuw nsw i64 %28, %31
  %33 = getelementptr inbounds i8, ptr %30, i64 %32
  %34 = sub nsw i64 0, %28
  br label %35

35:                                               ; preds = %extract_token_id_to_replace.exit.thread, %18
  %.041 = phi i32 [ %22, %18 ], [ %55, %extract_token_id_to_replace.exit.thread ]
  %.039 = phi ptr [ %33, %18 ], [ %36, %extract_token_id_to_replace.exit.thread ]
  %.not47 = icmp ne i32 %.041, 0
  tail call void @llvm.assume(i1 %.not47)
  %36 = getelementptr inbounds i8, ptr %.039, i64 %34
  %37 = getelementptr inbounds i8, ptr %36, i64 8
  %38 = load i8, ptr %37, align 8
  switch i8 %38, label %extract_token_id_to_replace.exit.thread [
    i8 8, label %44
    i8 7, label %39
  ]

39:                                               ; preds = %35
  %40 = load ptr, ptr %36, align 8
  %41 = tail call ptr @zend_hash_index_find(ptr noundef %40, i64 noundef 0) #10
  %42 = load ptr, ptr %36, align 8
  %43 = tail call ptr @zend_hash_index_find(ptr noundef %42, i64 noundef 1) #10
  br label %48

44:                                               ; preds = %35
  %45 = load ptr, ptr %36, align 8
  %46 = getelementptr inbounds i8, ptr %45, i64 40
  %47 = getelementptr inbounds i8, ptr %45, i64 56
  br label %48

48:                                               ; preds = %44, %39
  %.015.i = phi ptr [ %41, %39 ], [ %46, %44 ]
  %.0.i = phi ptr [ %43, %39 ], [ %47, %44 ]
  %49 = load ptr, ptr %.0.i, align 8
  %50 = getelementptr inbounds i8, ptr %49, i64 16
  %51 = load i64, ptr %50, align 8
  %52 = icmp eq i64 %51, %4
  br i1 %52, label %53, label %extract_token_id_to_replace.exit.thread

53:                                               ; preds = %48
  %54 = getelementptr inbounds i8, ptr %49, i64 24
  %bcmp.i = tail call i32 @bcmp(ptr nonnull %54, ptr %3, i64 %4)
  %.not.i = icmp ne i32 %bcmp.i, 0
  %.not48 = icmp eq ptr %.015.i, null
  %or.cond51 = select i1 %.not.i, i1 true, i1 %.not48
  br i1 %or.cond51, label %extract_token_id_to_replace.exit.thread, label %56

extract_token_id_to_replace.exit.thread:          ; preds = %35, %48, %53
  %55 = add i32 %.041, -1
  br label %35

56:                                               ; preds = %53
  %57 = sext i32 %1 to i64
  store i64 %57, ptr %.015.i, align 8
  %58 = getelementptr inbounds i8, ptr %.015.i, i64 8
  store i32 4, ptr %58, align 8
  br label %70

59:                                               ; preds = %6
  %60 = load ptr, ptr getelementptr inbounds (%struct._zend_php_scanner_globals, ptr @language_scanner_globals, i64 0, i32 5), align 8
  %61 = load ptr, ptr getelementptr inbounds (%struct._zend_php_scanner_globals, ptr @language_scanner_globals, i64 0, i32 7), align 8
  %.not = icmp eq ptr %60, %61
  br i1 %.not, label %70, label %62

62:                                               ; preds = %59
  %63 = load ptr, ptr %5, align 8
  %64 = ptrtoint ptr %61 to i64
  %65 = ptrtoint ptr %60 to i64
  %66 = sub i64 %64, %65
  %67 = load i32, ptr getelementptr inbounds (%struct._zend_compiler_globals, ptr @compiler_globals, i64 0, i32 3), align 8
  %68 = getelementptr inbounds i8, ptr %5, i64 8
  %69 = load ptr, ptr %68, align 8
  tail call fastcc void @add_token(ptr noundef %63, i32 noundef 267, ptr noundef %60, i64 noundef %66, i32 noundef %67, ptr noundef %69, ptr noundef null)
  br label %70

70:                                               ; preds = %59, %62, %7, %56, %9, %6
  ret void
}